Certificate:
    Data:
        Version: 3 (0x2)
        Serial Number: 88366011944 (0x1493065628)
    Signature Algorithm: sha256WithRSAEncryption
        Issuer: C=US, ST=PA, L=Pittsburgh, O=Branding Brand, CN=bb_platform
        Validity
            Not Before: Apr 24 20:27:08 2017 GMT
            Not After : Sep  8 20:27:08 2044 GMT
        Subject: C=US, ST=PA, O=Branding Brand, OU=bb_platform, CN=localhost
        Subject Public Key Info:
            Public Key Algorithm: rsaEncryption
                Public-Key: (2048 bit)
                Modulus:
                    00:bc:6f:f2:33:64:e0:8e:d6:62:33:e3:56:82:ec:
                    38:9f:2a:54:21:bf:9c:1e:97:4f:e8:50:f3:1d:d6:
                    18:23:59:57:84:37:32:c1:88:80:fd:45:52:3c:42:
                    ce:af:5c:29:9f:5b:d9:9a:df:46:55:49:c2:03:f6:
                    a8:e7:13:b2:c5:51:78:af:45:31:c1:ba:13:50:9b:
                    06:3b:23:38:ce:c4:dc:8a:5f:8e:81:f9:12:15:5e:
                    e4:19:4a:63:b1:24:60:fd:69:10:56:ce:b2:91:62:
                    75:6b:25:ac:0a:72:ae:57:1b:1a:33:af:34:57:be:
                    64:91:5f:a5:e4:34:c7:59:fc:fd:50:f1:36:a5:31:
                    8d:cd:f1:9b:b4:62:47:1e:3f:43:31:9b:f9:7a:cb:
                    ec:7d:81:83:2b:62:5a:af:5b:61:c8:4b:2e:0b:47:
                    4d:50:48:1e:12:fc:e0:41:7b:28:0c:05:49:dd:e7:
                    ec:8d:6f:0c:a2:cf:2d:74:00:41:e8:82:4a:c2:4a:
                    f5:d8:f6:d5:d2:28:76:9a:56:a3:91:dd:8f:8b:ce:
                    f7:31:8a:2c:00:58:54:0b:c0:14:94:9d:90:e5:d2:
                    c7:ec:1b:86:85:ef:72:fe:7b:b8:16:cd:50:f3:46:
                    8a:73:5c:21:01:a5:7c:f1:f0:6a:e6:a8:30:34:8b:
                    fc:d1
                Exponent: 65537 (0x10001)
        X509v3 extensions:
            X509v3 Subject Alternative Name: 
                IP Address:127.0.0.1, DNS:*.test.com, DNS:localhost-stage, DNS:localhost-dev, DNS:localhost-dev01, DNS:localhost-dev02, DNS:localhost-dev03, DNS:localhost-dev04, DNS:localhost-dev01-stage, DNS:localhost-dev02-stage, DNS:localhost-dev03-stage, DNS:localhost-dev04-stage, DNS:localhost-dev01-dev, DNS:localhost-dev02-dev, DNS:localhost-dev03-dev, DNS:localhost-dev04-dev, DNS:localhost-development, DNS:localhost-stg, DNS:localhost-qa, DNS:localhost-clientqa, DNS:localhost
            X509v3 Basic Constraints: 
                CA:FALSE
            X509v3 Key Usage: 
                Digital Signature, Non Repudiation, Key Encipherment
    Signature Algorithm: sha256WithRSAEncryption
         27:7d:9a:36:2a:79:d3:62:27:50:b5:7f:03:79:e5:83:43:7f:
         c4:21:39:ff:18:e8:84:2e:b3:2e:e0:0d:f1:71:8f:ea:a8:56:
         58:ee:e3:55:bc:97:31:91:d7:e1:9c:6d:23:05:fc:74:f0:c2:
         2c:34:3e:73:4d:04:c5:70:69:60:1f:18:f1:91:8b:cb:84:7c:
         59:db:f9:12:ad:fc:ba:37:0f:5a:af:a5:4a:ec:7b:f4:12:7e:
         39:ef:b1:dc:95:74:e5:de:25:09:ed:54:52:6d:9e:f3:a9:b6:
         e9:71:ff:01:1e:33:50:90:0e:49:4a:a8:32:7f:ca:68:60:a5:
         a5:04:fb:e4:c8:ef:98:79:00:95:d6:d5:15:b2:ed:69:4d:d2:
         0f:f2:b8:ab:95:63:4b:8e:37:c6:59:2a:52:cf:fc:6a:d5:8d:
         1d:da:cd:1e:67:1b:01:24:b8:fc:94:40:2c:41:f4:99:f8:b7:
         33:c8:63:ca:e3:a5:bd:88:a1:fc:84:ee:46:db:c9:2d:5c:81:
         a6:11:44:34:d5:f0:e2:e2:35:15:50:fb:94:64:08:aa:c4:8a:
         81:68:69:1a:ac:79:3c:e2:31:c1:41:11:0a:a4:74:0c:f7:51:
         26:c9:f1:98:ae:9b:3c:5c:59:5d:54:f8:ee:08:c0:1c:04:cd:
         bc:b2:4b:20
-----BEGIN CERTIFICATE-----
MIIE4jCCA8qgAwIBAgIFFJMGVigwDQYJKoZIhvcNAQELBQAwXjELMAkGA1UEBhMC
VVMxCzAJBgNVBAgMAlBBMRMwEQYDVQQHDApQaXR0c2J1cmdoMRcwFQYDVQQKDA5C
cmFuZGluZyBCcmFuZDEUMBIGA1UEAwwLYmJfcGxhdGZvcm0wHhcNMTcwNDI0MjAy
NzA4WhcNNDQwOTA4MjAyNzA4WjBdMQswCQYDVQQGEwJVUzELMAkGA1UECAwCUEEx
FzAVBgNVBAoMDkJyYW5kaW5nIEJyYW5kMRQwEgYDVQQLDAtiYl9wbGF0Zm9ybTES
MBAGA1UEAwwJbG9jYWxob3N0MIIBIjANBgkqhkiG9w0BAQEFAAOCAQ8AMIIBCgKC
AQEAvG/yM2TgjtZiM+NWguw4nypUIb+cHpdP6FDzHdYYI1lXhDcywYiA/UVSPELO
r1wpn1vZmt9GVUnCA/ao5xOyxVF4r0UxwboTUJsGOyM4zsTcil+OgfkSFV7kGUpj
sSRg/WkQVs6ykWJ1ayWsCnKuVxsaM680V75kkV+l5DTHWfz9UPE2pTGNzfGbtGJH
Hj9DMZv5esvsfYGDK2Jar1thyEsuC0dNUEgeEvzgQXsoDAVJ3efsjW8Mos8tdABB
6IJKwkr12PbV0ih2mlajkd2Pi873MYosAFhUC8AUlJ2Q5dLH7BuGhe9y/nu4Fs1Q
80aKc1whAaV88fBq5qgwNIv80QIDAQABo4IBpjCCAaIwggGGBgNVHREEggF9MIIB
eYcEfwAAAYIKKi50ZXN0LmNvbYIPbG9jYWxob3N0LXN0YWdlgg1sb2NhbGhvc3Qt
ZGV2gg9sb2NhbGhvc3QtZGV2MDGCD2xvY2FsaG9zdC1kZXYwMoIPbG9jYWxob3N0
LWRldjAzgg9sb2NhbGhvc3QtZGV2MDSCFWxvY2FsaG9zdC1kZXYwMS1zdGFnZYIV
bG9jYWxob3N0LWRldjAyLXN0YWdlghVsb2NhbGhvc3QtZGV2MDMtc3RhZ2WCFWxv
Y2FsaG9zdC1kZXYwNC1zdGFnZYITbG9jYWxob3N0LWRldjAxLWRldoITbG9jYWxo
b3N0LWRldjAyLWRldoITbG9jYWxob3N0LWRldjAzLWRldoITbG9jYWxob3N0LWRl
djA0LWRldoIVbG9jYWxob3N0LWRldmVsb3BtZW50gg1sb2NhbGhvc3Qtc3Rnggxs
b2NhbGhvc3QtcWGCEmxvY2FsaG9zdC1jbGllbnRxYYIJbG9jYWxob3N0MAkGA1Ud
EwQCMAAwCwYDVR0PBAQDAgXgMA0GCSqGSIb3DQEBCwUAA4IBAQAnfZo2KnnTYidQ
tX8DeeWDQ3/EITn/GOiELrMu4A3xcY/qqFZY7uNVvJcxkdfhnG0jBfx08MIsND5z
TQTFcGlgHxjxkYvLhHxZ2/kSrfy6Nw9ar6VK7Hv0En4577HclXTl3iUJ7VRSbZ7z
qbbpcf8BHjNQkA5JSqgyf8poYKWlBPvkyO+YeQCV1tUVsu1pTdIP8rirlWNLjjfG
WSpSz/xq1Y0d2s0eZxsBJLj8lEAsQfSZ+LczyGPK46W9iKH8hO5G28ktXIGmEUQ0
1fDi4jUVUPuUZAiqxIqBaGkarHk84jHBQREKpHQM91EmyfGYrps8XFldVPjuCMAc
BM28sksg
-----END CERTIFICATE-----
